; ModuleID = '64/2366.c'
source_filename = "64/2366.c"
target datalayout = "e-m:e-p270:32:32-p271:32:32-p272:64:64-i64:64-f80:128-n8:16:32:64-S128"
target triple = "x86_64-pc-linux-gnu"

@.str = private unnamed_addr constant [3 x i8] c"%d\00", align 1
@.str.1 = private unnamed_addr constant [7 x i8] c"%d%d%d\00", align 1
@.str.2 = private unnamed_addr constant [29 x i8] c"(%d,%d,%d)-(%d,%d,%d)=%.2lf\0A\00", align 1
@t = common dso_local global [2000 x i32] zeroinitializer, align 16

; Function Attrs: noinline nounwind uwtable
define dso_local double @id(i32 %0, i32 %1, i32 %2) #0 {
  %4 = alloca i32, align 4
  %5 = alloca i32, align 4
  %6 = alloca i32, align 4
  store i32 %0, i32* %4, align 4
  store i32 %1, i32* %5, align 4
  store i32 %2, i32* %6, align 4
  %7 = load i32, i32* %4, align 4
  %8 = load i32, i32* %4, align 4
  %9 = mul nsw i32 %7, %8
  %10 = load i32, i32* %5, align 4
  %11 = load i32, i32* %5, align 4
  %12 = mul nsw i32 %10, %11
  %13 = add nsw i32 %9, %12
  %14 = load i32, i32* %6, align 4
  %15 = load i32, i32* %6, align 4
  %16 = mul nsw i32 %14, %15
  %17 = add nsw i32 %13, %16
  %18 = sitofp i32 %17 to double
  %19 = call double @sqrt(double %18) #3
  ret double %19
}

; Function Attrs: nounwind
declare dso_local double @sqrt(double) #1

; Function Attrs: noinline nounwind uwtable
define dso_local i32 @main() #0 {
  %1 = alloca i32, align 4
  %2 = alloca i32, align 4
  %3 = alloca i32, align 4
  %4 = alloca i32, align 4
  %5 = alloca i32, align 4
  %6 = alloca i32, align 4
  %7 = alloca [20 x i32], align 16
  %8 = alloca [20 x i32], align 16
  %9 = alloca [20 x i32], align 16
  %10 = alloca [200 x i32], align 16
  %11 = alloca [200 x i32], align 16
  %12 = alloca [200 x double], align 16
  store i32 0, i32* %1, align 4
  store i32 0, i32* %6, align 4
  %13 = call i32 (i8*, ...) @__isoc99_scanf(i8* getelementptr inbounds ([3 x i8], [3 x i8]* @.str, i64 0, i64 0), i32* %5)
  store i32 0, i32* %2, align 4
  br label %14

14:                                               ; preds = %29, %0
  %15 = load i32, i32* %2, align 4
  %16 = load i32, i32* %5, align 4
  %17 = icmp slt i32 %15, %16
  br i1 %17, label %18, label %32

18:                                               ; preds = %14
  %19 = load i32, i32* %2, align 4
  %20 = sext i32 %19 to i64
  %21 = getelementptr inbounds [20 x i32], [20 x i32]* %7, i64 0, i64 %20
  %22 = load i32, i32* %2, align 4
  %23 = sext i32 %22 to i64
  %24 = getelementptr inbounds [20 x i32], [20 x i32]* %8, i64 0, i64 %23
  %25 = load i32, i32* %2, align 4
  %26 = sext i32 %25 to i64
  %27 = getelementptr inbounds [20 x i32], [20 x i32]* %9, i64 0, i64 %26
  %28 = call i32 (i8*, ...) @__isoc99_scanf(i8* getelementptr inbounds ([7 x i8], [7 x i8]* @.str.1, i64 0, i64 0), i32* %21, i32* %24, i32* %27)
  br label %29

29:                                               ; preds = %18
  %30 = load i32, i32* %2, align 4
  %31 = add nsw i32 %30, 1
  store i32 %31, i32* %2, align 4
  br label %14

32:                                               ; preds = %14
  %33 = load i32, i32* %5, align 4
  %34 = load i32, i32* %5, align 4
  %35 = sub nsw i32 %34, 1
  %36 = mul nsw i32 %33, %35
  %37 = sdiv i32 %36, 2
  store i32 %37, i32* %4, align 4
  store i32 0, i32* %2, align 4
  br label %38

38:                                               ; preds = %96, %32
  %39 = load i32, i32* %2, align 4
  %40 = load i32, i32* %5, align 4
  %41 = sub nsw i32 %40, 1
  %42 = icmp slt i32 %39, %41
  br i1 %42, label %43, label %99

43:                                               ; preds = %38
  %44 = load i32, i32* %2, align 4
  %45 = add nsw i32 %44, 1
  store i32 %45, i32* %3, align 4
  br label %46

46:                                               ; preds = %92, %43
  %47 = load i32, i32* %3, align 4
  %48 = load i32, i32* %5, align 4
  %49 = icmp slt i32 %47, %48
  br i1 %49, label %50, label %95

50:                                               ; preds = %46
  %51 = load i32, i32* %2, align 4
  %52 = sext i32 %51 to i64
  %53 = getelementptr inbounds [20 x i32], [20 x i32]* %7, i64 0, i64 %52
  %54 = load i32, i32* %53, align 4
  %55 = load i32, i32* %3, align 4
  %56 = sext i32 %55 to i64
  %57 = getelementptr inbounds [20 x i32], [20 x i32]* %7, i64 0, i64 %56
  %58 = load i32, i32* %57, align 4
  %59 = sub nsw i32 %54, %58
  %60 = load i32, i32* %2, align 4
  %61 = sext i32 %60 to i64
  %62 = getelementptr inbounds [20 x i32], [20 x i32]* %8, i64 0, i64 %61
  %63 = load i32, i32* %62, align 4
  %64 = load i32, i32* %3, align 4
  %65 = sext i32 %64 to i64
  %66 = getelementptr inbounds [20 x i32], [20 x i32]* %8, i64 0, i64 %65
  %67 = load i32, i32* %66, align 4
  %68 = sub nsw i32 %63, %67
  %69 = load i32, i32* %2, align 4
  %70 = sext i32 %69 to i64
  %71 = getelementptr inbounds [20 x i32], [20 x i32]* %9, i64 0, i64 %70
  %72 = load i32, i32* %71, align 4
  %73 = load i32, i32* %3, align 4
  %74 = sext i32 %73 to i64
  %75 = getelementptr inbounds [20 x i32], [20 x i32]* %9, i64 0, i64 %74
  %76 = load i32, i32* %75, align 4
  %77 = sub nsw i32 %72, %76
  %78 = call double @id(i32 %59, i32 %68, i32 %77)
  %79 = load i32, i32* %6, align 4
  %80 = sext i32 %79 to i64
  %81 = getelementptr inbounds [200 x double], [200 x double]* %12, i64 0, i64 %80
  store double %78, double* %81, align 8
  %82 = load i32, i32* %2, align 4
  %83 = load i32, i32* %6, align 4
  %84 = sext i32 %83 to i64
  %85 = getelementptr inbounds [200 x i32], [200 x i32]* %10, i64 0, i64 %84
  store i32 %82, i32* %85, align 4
  %86 = load i32, i32* %3, align 4
  %87 = load i32, i32* %6, align 4
  %88 = sext i32 %87 to i64
  %89 = getelementptr inbounds [200 x i32], [200 x i32]* %11, i64 0, i64 %88
  store i32 %86, i32* %89, align 4
  %90 = load i32, i32* %6, align 4
  %91 = add nsw i32 %90, 1
  store i32 %91, i32* %6, align 4
  br label %92

92:                                               ; preds = %50
  %93 = load i32, i32* %3, align 4
  %94 = add nsw i32 %93, 1
  store i32 %94, i32* %3, align 4
  br label %46

95:                                               ; preds = %46
  br label %96

96:                                               ; preds = %95
  %97 = load i32, i32* %2, align 4
  %98 = add nsw i32 %97, 1
  store i32 %98, i32* %2, align 4
  br label %38

99:                                               ; preds = %38
  store i32 1, i32* %2, align 4
  br label %100

100:                                              ; preds = %158, %99
  %101 = load i32, i32* %2, align 4
  %102 = load i32, i32* %4, align 4
  %103 = icmp sle i32 %101, %102
  br i1 %103, label %104, label %161

104:                                              ; preds = %100
  store i32 0, i32* %3, align 4
  br label %105

105:                                              ; preds = %154, %104
  %106 = load i32, i32* %3, align 4
  %107 = load i32, i32* %4, align 4
  %108 = load i32, i32* %2, align 4
  %109 = sub nsw i32 %107, %108
  %110 = icmp slt i32 %106, %109
  br i1 %110, label %111, label %157

111:                                              ; preds = %105
  %112 = load i32, i32* %3, align 4
  %113 = sext i32 %112 to i64
  %114 = getelementptr inbounds [200 x double], [200 x double]* %12, i64 0, i64 %113
  %115 = load double, double* %114, align 8
  %116 = load i32, i32* %3, align 4
  %117 = add nsw i32 %116, 1
  %118 = sext i32 %117 to i64
  %119 = getelementptr inbounds [200 x double], [200 x double]* %12, i64 0, i64 %118
  %120 = load double, double* %119, align 8
  %121 = fcmp olt double %115, %120
  br i1 %121, label %122, label %153

122:                                              ; preds = %111
  %123 = load i32, i32* %3, align 4
  %124 = sext i32 %123 to i64
  %125 = getelementptr inbounds [200 x i32], [200 x i32]* %10, i64 0, i64 %124
  %126 = load i32, i32* %125, align 4
  %127 = load i32, i32* %3, align 4
  %128 = add nsw i32 %127, 1
  %129 = sext i32 %128 to i64
  %130 = getelementptr inbounds [200 x i32], [200 x i32]* %10, i64 0, i64 %129
  %131 = load i32, i32* %130, align 4
  %132 = call i32 (i32, i32, ...) bitcast (i32 (...)* @swap to i32 (i32, i32, ...)*)(i32 %126, i32 %131)
  %133 = load i32, i32* %3, align 4
  %134 = sext i32 %133 to i64
  %135 = getelementptr inbounds [200 x i32], [200 x i32]* %11, i64 0, i64 %134
  %136 = load i32, i32* %135, align 4
  %137 = load i32, i32* %3, align 4
  %138 = add nsw i32 %137, 1
  %139 = sext i32 %138 to i64
  %140 = getelementptr inbounds [200 x i32], [200 x i32]* %11, i64 0, i64 %139
  %141 = load i32, i32* %140, align 4
  %142 = call i32 (i32, i32, ...) bitcast (i32 (...)* @swap to i32 (i32, i32, ...)*)(i32 %136, i32 %141)
  %143 = load i32, i32* %3, align 4
  %144 = sext i32 %143 to i64
  %145 = getelementptr inbounds [200 x double], [200 x double]* %12, i64 0, i64 %144
  %146 = load double, double* %145, align 8
  %147 = load i32, i32* %3, align 4
  %148 = add nsw i32 %147, 1
  %149 = sext i32 %148 to i64
  %150 = getelementptr inbounds [200 x double], [200 x double]* %12, i64 0, i64 %149
  %151 = load double, double* %150, align 8
  %152 = call i32 (double, double, ...) bitcast (i32 (...)* @swap to i32 (double, double, ...)*)(double %146, double %151)
  br label %153

153:                                              ; preds = %122, %111
  br label %154

154:                                              ; preds = %153
  %155 = load i32, i32* %3, align 4
  %156 = add nsw i32 %155, 1
  store i32 %156, i32* %3, align 4
  br label %105

157:                                              ; preds = %105
  br label %158

158:                                              ; preds = %157
  %159 = load i32, i32* %2, align 4
  %160 = add nsw i32 %159, 1
  store i32 %160, i32* %2, align 4
  br label %100

161:                                              ; preds = %100
  store i32 0, i32* %3, align 4
  br label %162

162:                                              ; preds = %214, %161
  %163 = load i32, i32* %3, align 4
  %164 = load i32, i32* %4, align 4
  %165 = icmp slt i32 %163, %164
  br i1 %165, label %166, label %217

166:                                              ; preds = %162
  %167 = load i32, i32* %3, align 4
  %168 = sext i32 %167 to i64
  %169 = getelementptr inbounds [200 x i32], [200 x i32]* %10, i64 0, i64 %168
  %170 = load i32, i32* %169, align 4
  %171 = sext i32 %170 to i64
  %172 = getelementptr inbounds [20 x i32], [20 x i32]* %7, i64 0, i64 %171
  %173 = load i32, i32* %172, align 4
  %174 = load i32, i32* %3, align 4
  %175 = sext i32 %174 to i64
  %176 = getelementptr inbounds [200 x i32], [200 x i32]* %10, i64 0, i64 %175
  %177 = load i32, i32* %176, align 4
  %178 = sext i32 %177 to i64
  %179 = getelementptr inbounds [20 x i32], [20 x i32]* %8, i64 0, i64 %178
  %180 = load i32, i32* %179, align 4
  %181 = load i32, i32* %3, align 4
  %182 = sext i32 %181 to i64
  %183 = getelementptr inbounds [200 x i32], [200 x i32]* %10, i64 0, i64 %182
  %184 = load i32, i32* %183, align 4
  %185 = sext i32 %184 to i64
  %186 = getelementptr inbounds [20 x i32], [20 x i32]* %9, i64 0, i64 %185
  %187 = load i32, i32* %186, align 4
  %188 = load i32, i32* %3, align 4
  %189 = sext i32 %188 to i64
  %190 = getelementptr inbounds [200 x i32], [200 x i32]* %11, i64 0, i64 %189
  %191 = load i32, i32* %190, align 4
  %192 = sext i32 %191 to i64
  %193 = getelementptr inbounds [20 x i32], [20 x i32]* %7, i64 0, i64 %192
  %194 = load i32, i32* %193, align 4
  %195 = load i32, i32* %3, align 4
  %196 = sext i32 %195 to i64
  %197 = getelementptr inbounds [200 x i32], [200 x i32]* %11, i64 0, i64 %196
  %198 = load i32, i32* %197, align 4
  %199 = sext i32 %198 to i64
  %200 = getelementptr inbounds [20 x i32], [20 x i32]* %8, i64 0, i64 %199
  %201 = load i32, i32* %200, align 4
  %202 = load i32, i32* %3, align 4
  %203 = sext i32 %202 to i64
  %204 = getelementptr inbounds [200 x i32], [200 x i32]* %11, i64 0, i64 %203
  %205 = load i32, i32* %204, align 4
  %206 = sext i32 %205 to i64
  %207 = getelementptr inbounds [20 x i32], [20 x i32]* %9, i64 0, i64 %206
  %208 = load i32, i32* %207, align 4
  %209 = load i32, i32* %3, align 4
  %210 = sext i32 %209 to i64
  %211 = getelementptr inbounds [200 x double], [200 x double]* %12, i64 0, i64 %210
  %212 = load double, double* %211, align 8
  %213 = call i32 (i8*, ...) @printf(i8* getelementptr inbounds ([29 x i8], [29 x i8]* @.str.2, i64 0, i64 0), i32 %173, i32 %180, i32 %187, i32 %194, i32 %201, i32 %208, double %212)
  br label %214

214:                                              ; preds = %166
  %215 = load i32, i32* %3, align 4
  %216 = add nsw i32 %215, 1
  store i32 %216, i32* %3, align 4
  br label %162

217:                                              ; preds = %162
  ret i32 0
}

declare dso_local i32 @__isoc99_scanf(i8*, ...) #2

declare dso_local i32 @swap(...) #2

declare dso_local i32 @printf(i8*, ...) #2


!llvm.module.flags = !{!0}
!llvm.ident = !{!1}

!0 = !{i32 1, !"wchar_size", i32 4}
!1 = !{!"clang version 10.0.0-4ubuntu1 "}
